; Function Attrs: nofree norecurse nosync nounwind memory(readwrite, inaccessiblemem: none) uwtable
define hidden i32 @mbedtls_asn1_write_ia5_string(ptr noundef captures(none) %0, ptr noundef %1, ptr noundef readonly captures(none) %2, i64 noundef %3) local_unnamed_addr #6 {
  %5 = load ptr, ptr %0, align 8, !tbaa !5
  %6 = icmp ult ptr %5, %1
  %7 = ptrtoint ptr %5 to i64
  %8 = ptrtoint ptr %1 to i64
  %9 = sub i64 %7, %8
  %10 = icmp ult i64 %9, %3
  %or.cond.i.i = or i1 %6, %10
  br i1 %or.cond.i.i, label %mbedtls_asn1_write_tagged_string.exit, label %mbedtls_asn1_write_raw_buffer.exit.i

mbedtls_asn1_write_raw_buffer.exit.i:             ; preds = %4
  %11 = sub i64 0, %3
  %12 = getelementptr inbounds i8, ptr %5, i64 %11
  store ptr %12, ptr %0, align 8, !tbaa !5
  tail call void @llvm.memcpy.p0.p0.i64(ptr align 1 %12, ptr readonly align 1 %2, i64 %3, i1 false)
  %13 = trunc i64 %3 to i32
  %14 = icmp slt i32 %13, 0
  br i1 %14, label %mbedtls_asn1_write_tagged_string.exit, label %15

15:                                               ; preds = %mbedtls_asn1_write_raw_buffer.exit.i
  %16 = and i64 %3, 2147483647
  %17 = icmp samesign ugt i64 %16, 127
  br i1 %17, label %.preheader23.i.i.i, label %.loopexit.i.i.i

.preheader23.i.i.i:                               ; preds = %15, %.preheader23.i.i.i
  %.025.i.i.i = phi i64 [ %19, %.preheader23.i.i.i ], [ %16, %15 ]
  %.124.i.i.i = phi i32 [ %18, %.preheader23.i.i.i ], [ 1, %15 ]
  %18 = add nuw nsw i32 %.124.i.i.i, 1
  %19 = lshr i64 %.025.i.i.i, 8
  %.not.i.i.i = icmp samesign ult i64 %.025.i.i.i, 256
  br i1 %.not.i.i.i, label %.loopexit.i.i.i, label %.preheader23.i.i.i, !llvm.loop !3

.loopexit.i.i.i:                                  ; preds = %.preheader23.i.i.i, %15
  %.017.i.i.i = phi i32 [ 1, %15 ], [ %18, %.preheader23.i.i.i ]
  %20 = zext nneg i32 %.017.i.i.i to i64
  %21 = load ptr, ptr %0, align 8, !tbaa !5
  %22 = ptrtoint ptr %21 to i64
  %23 = sub i64 %22, %8
  %24 = icmp slt i64 %23, %20
  br i1 %24, label %mbedtls_asn1_write_tagged_string.exit, label %.preheader.i.i.i

.preheader.i.i.i:                                 ; preds = %.loopexit.i.i.i, %.preheader.i.i.i
  %.018.i.i.i = phi i64 [ %28, %.preheader.i.i.i ], [ %16, %.loopexit.i.i.i ]
  %25 = trunc i64 %.018.i.i.i to i8
  %26 = load ptr, ptr %0, align 8, !tbaa !5
  %27 = getelementptr inbounds i8, ptr %26, i64 -1
  store ptr %27, ptr %0, align 8, !tbaa !5
  store i8 %25, ptr %27, align 1, !tbaa !10
  %28 = lshr i64 %.018.i.i.i, 8
  %.not22.i.i.i = icmp samesign ult i64 %.018.i.i.i, 256
  br i1 %.not22.i.i.i, label %29, label %.preheader.i.i.i, !llvm.loop !11

29:                                               ; preds = %.preheader.i.i.i
  %30 = icmp samesign ugt i32 %.017.i.i.i, 1
  br i1 %30, label %31, label %mbedtls_asn1_write_len.exit.i.i

31:                                               ; preds = %29
  %32 = trunc i32 %.017.i.i.i to i8
  %33 = add i8 %32, 127
  %34 = load ptr, ptr %0, align 8, !tbaa !5
  %35 = getelementptr inbounds i8, ptr %34, i64 -1
  store ptr %35, ptr %0, align 8, !tbaa !5
  store i8 %33, ptr %35, align 1, !tbaa !10
  br label %mbedtls_asn1_write_len.exit.i.i

mbedtls_asn1_write_len.exit.i.i:                  ; preds = %31, %29
  %36 = load ptr, ptr %0, align 8, !tbaa !5
  %37 = ptrtoint ptr %36 to i64
  %38 = sub i64 %37, %8
  %39 = icmp slt i64 %38, 1
  br i1 %39, label %mbedtls_asn1_write_tagged_string.exit, label %40

40:                                               ; preds = %mbedtls_asn1_write_len.exit.i.i
  %41 = getelementptr inbounds i8, ptr %36, i64 -1
  store ptr %41, ptr %0, align 8, !tbaa !5
  store i8 22, ptr %41, align 1, !tbaa !10
  %42 = add nuw i32 %13, 1
  %43 = add i32 %42, %.017.i.i.i
  br label %mbedtls_asn1_write_tagged_string.exit

mbedtls_asn1_write_tagged_string.exit:            ; preds = %4, %mbedtls_asn1_write_raw_buffer.exit.i, %.loopexit.i.i.i, %mbedtls_asn1_write_len.exit.i.i, %40
  %.0.i = phi i32 [ %13, %mbedtls_asn1_write_raw_buffer.exit.i ], [ %43, %40 ], [ -108, %.loopexit.i.i.i ], [ -108, %mbedtls_asn1_write_len.exit.i.i ], [ -108, %4 ]
  ret i32 %.0.i
}